target datalayout = "e-m:e-p270:32:32-p271:32:32-p272:64:64-i64:64-i128:128-f80:128-n8:16:32:64-S128"
target triple = "x86_64-pc-linux-gnu"

%struct.ExprEvalStep = type { i64, ptr, ptr, %union.anon }
%union.anon = type { %struct.anon.23 }
%struct.anon.23 = type { ptr, ptr, i32, i32, ptr, ptr }
%struct.FunctionCallInfoBaseData = type { ptr, ptr, ptr, i32, i8, i16, [0 x %struct.NullableDatum] }
%struct.NullableDatum = type { i64, i8 }
%struct.anon.6 = type { ptr, ptr, ptr, i32, i8 }
%struct.PgStat_FunctionCallUsage = type { ptr, %struct.instr_time, %struct.instr_time, %struct.instr_time }
%struct.instr_time = type { i64 }

; Function Attrs: nounwind uwtable
define dso_local void @ExecEvalFuncExprFusage(ptr noundef %0, ptr noundef %1, ptr noundef %2) #0 {
  %4 = alloca ptr, align 8
  %5 = alloca ptr, align 8
  %6 = alloca ptr, align 8
  %7 = alloca ptr, align 8
  %8 = alloca %struct.PgStat_FunctionCallUsage, align 8
  %9 = alloca i64, align 8
  store ptr %0, ptr %4, align 8
  store ptr %1, ptr %5, align 8
  store ptr %2, ptr %6, align 8
  call void @llvm.lifetime.start.p0(i64 8, ptr %7) #11
  %10 = load ptr, ptr %5, align 8
  %11 = getelementptr inbounds nuw %struct.ExprEvalStep, ptr %10, i32 0, i32 3
  %12 = getelementptr inbounds nuw %struct.anon.6, ptr %11, i32 0, i32 1
  %13 = load ptr, ptr %12, align 8
  store ptr %13, ptr %7, align 8
  call void @llvm.lifetime.start.p0(i64 32, ptr %8) #11
  call void @llvm.lifetime.start.p0(i64 8, ptr %9) #11
  %14 = load ptr, ptr %7, align 8
  call void @pgstat_init_function_usage(ptr noundef %14, ptr noundef %8)
  %15 = load ptr, ptr %7, align 8
  %16 = getelementptr inbounds nuw %struct.FunctionCallInfoBaseData, ptr %15, i32 0, i32 4
  store i8 0, ptr %16, align 4
  %17 = load ptr, ptr %5, align 8
  %18 = getelementptr inbounds nuw %struct.ExprEvalStep, ptr %17, i32 0, i32 3
  %19 = getelementptr inbounds nuw %struct.anon.6, ptr %18, i32 0, i32 2
  %20 = load ptr, ptr %19, align 8
  %21 = load ptr, ptr %7, align 8
  %22 = call i64 %20(ptr noundef %21)
  store i64 %22, ptr %9, align 8
  %23 = load i64, ptr %9, align 8
  %24 = load ptr, ptr %5, align 8
  %25 = getelementptr inbounds nuw %struct.ExprEvalStep, ptr %24, i32 0, i32 1
  %26 = load ptr, ptr %25, align 8
  store i64 %23, ptr %26, align 8
  %27 = load ptr, ptr %7, align 8
  %28 = getelementptr inbounds nuw %struct.FunctionCallInfoBaseData, ptr %27, i32 0, i32 4
  %29 = load i8, ptr %28, align 4, !range !7, !noundef !8
  %30 = trunc i8 %29 to i1
  %31 = load ptr, ptr %5, align 8
  %32 = getelementptr inbounds nuw %struct.ExprEvalStep, ptr %31, i32 0, i32 2
  %33 = load ptr, ptr %32, align 8
  %34 = zext i1 %30 to i8
  store i8 %34, ptr %33, align 1
  call void @pgstat_end_function_usage(ptr noundef %8, i1 noundef zeroext true)
  call void @llvm.lifetime.end.p0(i64 8, ptr %9) #11
  call void @llvm.lifetime.end.p0(i64 32, ptr %8) #11
  call void @llvm.lifetime.end.p0(i64 8, ptr %7) #11
  ret void
}