; Function Attrs: nounwind uwtable
define dso_local void @ExecEvalFuncExprFusage(ptr noundef readnone captures(none) %0, ptr noundef readonly captures(none) %1, ptr noundef readnone captures(none) %2) local_unnamed_addr #0 {
  %4 = alloca %struct.PgStat_FunctionCallUsage, align 8
  %5 = getelementptr inbounds nuw i8, ptr %1, i64 32
  %6 = load ptr, ptr %5, align 8
  call void @llvm.lifetime.start.p0(i64 32, ptr nonnull %4) #18
  call void @pgstat_init_function_usage(ptr noundef %6, ptr noundef nonnull %4) #18
  %7 = getelementptr inbounds nuw i8, ptr %6, i64 28
  store i8 0, ptr %7, align 4
  %8 = getelementptr inbounds nuw i8, ptr %1, i64 40
  %9 = load ptr, ptr %8, align 8
  %10 = call i64 %9(ptr noundef %6) #18
  %11 = getelementptr inbounds nuw i8, ptr %1, i64 8
  %12 = load ptr, ptr %11, align 8
  store i64 %10, ptr %12, align 8
  %13 = load i8, ptr %7, align 4, !range !8, !noundef !9
  %14 = getelementptr inbounds nuw i8, ptr %1, i64 16
  %15 = load ptr, ptr %14, align 8
  store i8 %13, ptr %15, align 1
  call void @pgstat_end_function_usage(ptr noundef nonnull %4, i1 noundef zeroext true) #18
  call void @llvm.lifetime.end.p0(i64 32, ptr nonnull %4) #18
  ret void
}